target datalayout = "e-m:e-p270:32:32-p271:32:32-p272:64:64-i64:64-i128:128-f80:128-n8:16:32:64-S128"
target triple = "x86_64-pc-linux-gnu"

%struct._address = type { i32, i32, ptr, ptr }
%struct._packet_info = type { ptr, ptr, i32, i32, %struct.nstime_t, %struct.nstime_t, %struct.nstime_t, i8, ptr, ptr, ptr, ptr, %struct._address, %struct._address, %struct._address, %struct._address, %struct._address, %struct._address, i32, ptr, i8, [3 x i8], %struct.anon.1, i32, i32, i32, i32, ptr, i8, ptr, ptr, i16, i16, i32, i32, i16, i32, i32, ptr, ptr, ptr, i8, i8, i16, i16, i16, i32, i16, i16, ptr, ptr, ptr, ptr, ptr, i32, i32 }
%struct.nstime_t = type { i64, i32 }
%struct.anon.1 = type { i8, [3 x i8] }
%struct._http_info_value_t = type { i32, ptr, i32, ptr, ptr, ptr, ptr, ptr, ptr }
%struct._http_req_res_t = type { i32, i32, i32, %struct.nstime_t, i32, ptr, ptr, ptr, ptr, i8, i8, ptr }
%struct._proto_node = type { ptr, ptr, ptr, ptr, ptr, ptr, ptr }
%struct.field_info = type { ptr, i32, i32, i32, i32, i32, i32, ptr, ptr, ptr, i32, i32 }

@hf_http_response_version = internal global i32 0, align 4
@hf_http_response_code = internal global i32 0, align 4
@hf_http_response_code_desc = internal global i32 0, align 4
@hf_http_response_phrase = internal global i32 0, align 4
@proto_http = internal global i32 0, align 4
@.str.457 = private unnamed_addr constant [13 x i8] c"Unknown (%d)\00", align 1

; Function Attrs: inlinehint nounwind null_pointer_is_valid sspstrong uwtable
define internal void @proto_item_set_generated(ptr noundef %0) #6 {
  %2 = alloca ptr, align 8
  store ptr %0, ptr %2, align 8
  %3 = load ptr, ptr %2, align 8
  %4 = icmp ne ptr %3, null
  br i1 %4, label %5, label %24

5:                                                ; preds = %1
  br label %6

6:                                                ; preds = %5
  %7 = load ptr, ptr %2, align 8
  %8 = getelementptr inbounds nuw %struct._proto_node, ptr %7, i32 0, i32 5
  %9 = load ptr, ptr %8, align 8
  %10 = icmp ne ptr %9, null
  br i1 %10, label %11, label %22

11:                                               ; preds = %6
  %12 = load ptr, ptr %2, align 8
  %13 = getelementptr inbounds nuw %struct._proto_node, ptr %12, i32 0, i32 5
  %14 = load ptr, ptr %13, align 8
  %15 = getelementptr inbounds nuw %struct.field_info, ptr %14, i32 0, i32 6
  %16 = load i32, ptr %15, align 4
  %17 = or i32 %16, 2
  %18 = load ptr, ptr %2, align 8
  %19 = getelementptr inbounds nuw %struct._proto_node, ptr %18, i32 0, i32 5
  %20 = load ptr, ptr %19, align 8
  %21 = getelementptr inbounds nuw %struct.field_info, ptr %20, i32 0, i32 6
  store i32 %17, ptr %21, align 4
  br label %22

22:                                               ; preds = %11, %6
  br label %23

23:                                               ; preds = %22
  br label %24

24:                                               ; preds = %23, %1
  ret void
}

; Function Attrs: alwaysinline nounwind
define internal ptr @memcpy.inline(ptr noalias %0, ptr noalias %1, i64 %2) #9 {
  %4 = alloca ptr, align 8
  %5 = alloca ptr, align 8
  %6 = alloca i64, align 8
  store ptr %0, ptr %4, align 8
  store ptr %1, ptr %5, align 8
  store i64 %2, ptr %6, align 8
  %7 = load ptr, ptr %4, align 8
  %8 = load ptr, ptr %5, align 8
  %9 = load i64, ptr %6, align 8
  %10 = load ptr, ptr %4, align 8
  %11 = call i64 @llvm.objectsize.i64.p0(ptr %10, i1 false, i1 true, i1 true)
  %12 = call ptr @__memcpy_chk(ptr noundef %7, ptr noundef %8, i64 noundef %9, i64 noundef %11) #19
  ret ptr %12
}

; Function Attrs: null_pointer_is_valid sspstrong uwtable
define internal void @basic_response_dissector(ptr noundef %0, ptr noundef %1, ptr noundef %2, i32 noundef %3, ptr noundef %4, ptr noundef %5, ptr noundef %6, ptr noundef %7) #0 {
  %9 = alloca ptr, align 8
  %10 = alloca ptr, align 8
  %11 = alloca ptr, align 8
  %12 = alloca i32, align 4
  %13 = alloca ptr, align 8
  %14 = alloca ptr, align 8
  %15 = alloca ptr, align 8
  %16 = alloca ptr, align 8
  %17 = alloca ptr, align 8
  %18 = alloca i32, align 4
  %19 = alloca [4 x i8], align 1
  %20 = alloca ptr, align 8
  %21 = alloca ptr, align 8
  %22 = alloca i32, align 4
  store ptr %0, ptr %9, align 8
  store ptr %1, ptr %10, align 8
  store ptr %2, ptr %11, align 8
  store i32 %3, ptr %12, align 4
  store ptr %4, ptr %13, align 8
  store ptr %5, ptr %14, align 8
  store ptr %6, ptr %15, align 8
  store ptr %7, ptr %16, align 8
  call void @llvm.lifetime.start.p0(i64 8, ptr %17) #19
  call void @llvm.lifetime.start.p0(i64 4, ptr %18) #19
  call void @llvm.lifetime.start.p0(i64 4, ptr %19) #19
  call void @llvm.lifetime.start.p0(i64 8, ptr %20) #19
  call void @llvm.lifetime.start.p0(i64 8, ptr %21) #19
  %23 = load ptr, ptr %9, align 8
  %24 = getelementptr inbounds nuw %struct._packet_info, ptr %23, i32 0, i32 51
  %25 = load ptr, ptr %24, align 8
  %26 = load ptr, ptr %9, align 8
  %27 = load i32, ptr @proto_http, align 4
  %28 = call ptr @p_get_proto_data(ptr noundef %25, ptr noundef %26, i32 noundef %27, i32 noundef 1)
  store ptr %28, ptr %21, align 8
  %29 = load ptr, ptr %13, align 8
  %30 = load ptr, ptr %14, align 8
  %31 = call i32 @get_token_len(ptr noundef %29, ptr noundef %30, ptr noundef %17)
  store i32 %31, ptr %18, align 4
  %32 = load i32, ptr %18, align 4
  %33 = icmp eq i32 %32, 0
  br i1 %33, label %34, label %35

34:                                               ; preds = %8
  store i32 1, ptr %22, align 4
  br label %119

35:                                               ; preds = %8
  %36 = load ptr, ptr %11, align 8
  %37 = load i32, ptr @hf_http_response_version, align 4
  %38 = load ptr, ptr %10, align 8
  %39 = load i32, ptr %12, align 4
  %40 = load i32, ptr %18, align 4
  %41 = call ptr @proto_tree_add_item(ptr noundef %36, i32 noundef %37, ptr noundef %38, i32 noundef %39, i32 noundef %40, i32 noundef 0)
  %42 = load ptr, ptr %17, align 8
  %43 = load ptr, ptr %13, align 8
  %44 = ptrtoint ptr %42 to i64
  %45 = ptrtoint ptr %43 to i64
  %46 = sub i64 %44, %45
  %47 = trunc i64 %46 to i32
  %48 = load i32, ptr %12, align 4
  %49 = add i32 %48, %47
  store i32 %49, ptr %12, align 4
  %50 = load ptr, ptr %17, align 8
  store ptr %50, ptr %13, align 8
  %51 = load ptr, ptr %13, align 8
  %52 = load ptr, ptr %14, align 8
  %53 = call i32 @get_token_len(ptr noundef %51, ptr noundef %52, ptr noundef %17)
  store i32 %53, ptr %18, align 4
  %54 = load i32, ptr %18, align 4
  %55 = icmp slt i32 %54, 3
  br i1 %55, label %56, label %57

56:                                               ; preds = %35
  store i32 1, ptr %22, align 4
  br label %119

57:                                               ; preds = %35
  %58 = getelementptr inbounds [4 x i8], ptr %19, i64 0, i64 0
  %59 = load ptr, ptr %13, align 8
  %60 = call ptr @memcpy.inline(ptr noundef %58, ptr noundef %59, i64 noundef 3) #19
  %61 = getelementptr [4 x i8], ptr %19, i64 0, i64 3
  store i8 0, ptr %61, align 1
  %62 = getelementptr inbounds [4 x i8], ptr %19, i64 0, i64 0
  %63 = call i64 @strtoul(ptr noundef %62, ptr noundef null, i32 noundef 10) #19
  %64 = trunc i64 %63 to i32
  %65 = load ptr, ptr %21, align 8
  %66 = getelementptr inbounds nuw %struct._http_info_value_t, ptr %65, i32 0, i32 2
  store i32 %64, ptr %66, align 8
  %67 = load ptr, ptr %16, align 8
  %68 = icmp ne ptr %67, null
  br i1 %68, label %69, label %75

69:                                               ; preds = %57
  %70 = load ptr, ptr %21, align 8
  %71 = getelementptr inbounds nuw %struct._http_info_value_t, ptr %70, i32 0, i32 2
  %72 = load i32, ptr %71, align 8
  %73 = load ptr, ptr %16, align 8
  %74 = getelementptr inbounds nuw %struct._http_req_res_t, ptr %73, i32 0, i32 4
  store i32 %72, ptr %74, align 8
  br label %75

75:                                               ; preds = %69, %57
  %76 = load ptr, ptr %11, align 8
  %77 = load i32, ptr @hf_http_response_code, align 4
  %78 = load ptr, ptr %10, align 8
  %79 = load i32, ptr %12, align 4
  %80 = load ptr, ptr %21, align 8
  %81 = getelementptr inbounds nuw %struct._http_info_value_t, ptr %80, i32 0, i32 2
  %82 = load i32, ptr %81, align 8
  %83 = call ptr @proto_tree_add_uint(ptr noundef %76, i32 noundef %77, ptr noundef %78, i32 noundef %79, i32 noundef 3, i32 noundef %82)
  %84 = load ptr, ptr %11, align 8
  %85 = load i32, ptr @hf_http_response_code_desc, align 4
  %86 = load ptr, ptr %10, align 8
  %87 = load i32, ptr %12, align 4
  %88 = load ptr, ptr %21, align 8
  %89 = getelementptr inbounds nuw %struct._http_info_value_t, ptr %88, i32 0, i32 2
  %90 = load i32, ptr %89, align 8
  %91 = call ptr @val_to_str(i32 noundef %90, ptr noundef @vals_http_status_code, ptr noundef @.str.457)
  %92 = call ptr @proto_tree_add_string(ptr noundef %84, i32 noundef %85, ptr noundef %86, i32 noundef %87, i32 noundef 3, ptr noundef %91)
  store ptr %92, ptr %20, align 8
  %93 = load ptr, ptr %20, align 8
  call void @proto_item_set_generated(ptr noundef %93)
  %94 = load ptr, ptr %17, align 8
  %95 = load ptr, ptr %13, align 8
  %96 = ptrtoint ptr %94 to i64
  %97 = ptrtoint ptr %95 to i64
  %98 = sub i64 %96, %97
  %99 = trunc i64 %98 to i32
  %100 = load i32, ptr %12, align 4
  %101 = add i32 %100, %99
  store i32 %101, ptr %12, align 4
  %102 = load ptr, ptr %17, align 8
  store ptr %102, ptr %13, align 8
  %103 = load ptr, ptr %14, align 8
  %104 = load ptr, ptr %13, align 8
  %105 = ptrtoint ptr %103 to i64
  %106 = ptrtoint ptr %104 to i64
  %107 = sub i64 %105, %106
  %108 = trunc i64 %107 to i32
  store i32 %108, ptr %18, align 4
  %109 = load i32, ptr %18, align 4
  %110 = icmp sge i32 %109, 1
  br i1 %110, label %111, label %118

111:                                              ; preds = %75
  %112 = load ptr, ptr %11, align 8
  %113 = load i32, ptr @hf_http_response_phrase, align 4
  %114 = load ptr, ptr %10, align 8
  %115 = load i32, ptr %12, align 4
  %116 = load i32, ptr %18, align 4
  %117 = call ptr @proto_tree_add_item(ptr noundef %112, i32 noundef %113, ptr noundef %114, i32 noundef %115, i32 noundef %116, i32 noundef 0)
  br label %118

118:                                              ; preds = %111, %75
  store i32 0, ptr %22, align 4
  br label %119

119:                                              ; preds = %118, %56, %34
  call void @llvm.lifetime.end.p0(i64 8, ptr %21) #19
  call void @llvm.lifetime.end.p0(i64 8, ptr %20) #19
  call void @llvm.lifetime.end.p0(i64 4, ptr %19) #19
  call void @llvm.lifetime.end.p0(i64 4, ptr %18) #19
  call void @llvm.lifetime.end.p0(i64 8, ptr %17) #19
  %120 = load i32, ptr %22, align 4
  switch i32 %120, label %122 [
    i32 0, label %121
    i32 1, label %121
  ]

121:                                              ; preds = %119, %119
  ret void

122:                                              ; preds = %119
  unreachable
}