; Function Attrs: null_pointer_is_valid sspstrong uwtable
define internal void @basic_response_dissector(ptr noundef %0, ptr noundef %1, ptr noundef %2, i32 noundef %3, ptr noundef %4, ptr noundef %5, ptr readnone captures(none) %6, ptr noundef writeonly captures(address_is_null) %7) #0 {
  %9 = alloca ptr, align 8
  %10 = alloca [4 x i8], align 1
  call void @llvm.lifetime.start.p0(i64 8, ptr nonnull %9) #21
  call void @llvm.lifetime.start.p0(i64 4, ptr nonnull %10) #21
  %11 = getelementptr inbounds nuw i8, ptr %0, i64 408
  %12 = load ptr, ptr %11, align 8
  %13 = load i32, ptr @proto_http, align 4
  %14 = tail call ptr @p_get_proto_data(ptr noundef %12, ptr noundef %0, i32 noundef %13, i32 noundef 1)
  %15 = call i32 @get_token_len(ptr noundef %4, ptr noundef %5, ptr noundef nonnull %9)
  %16 = icmp eq i32 %15, 0
  br i1 %16, label %62, label %17

17:                                               ; preds = %8
  %18 = load i32, ptr @hf_http_response_version, align 4
  %19 = call ptr @proto_tree_add_item(ptr noundef %2, i32 noundef %18, ptr noundef %1, i32 noundef %3, i32 noundef %15, i32 noundef 0)
  %20 = load ptr, ptr %9, align 8
  %21 = ptrtoint ptr %20 to i64
  %22 = ptrtoint ptr %4 to i64
  %23 = sub i64 %21, %22
  %24 = trunc i64 %23 to i32
  %25 = add i32 %3, %24
  %26 = call i32 @get_token_len(ptr noundef %20, ptr noundef %5, ptr noundef nonnull %9)
  %27 = icmp slt i32 %26, 3
  br i1 %27, label %62, label %28

28:                                               ; preds = %17
  call void @llvm.memcpy.p0.p0.i64(ptr noundef nonnull align 1 dereferenceable(3) %10, ptr noundef align 1 dereferenceable(3) %20, i64 noundef 3, i1 noundef false) #21
  %29 = getelementptr inbounds nuw i8, ptr %10, i64 3
  store i8 0, ptr %29, align 1
  %30 = call i64 @strtoul(ptr noundef nonnull captures(none) %10, ptr noundef null, i32 noundef 10) #21
  %31 = trunc i64 %30 to i32
  %32 = getelementptr inbounds nuw i8, ptr %14, i64 16
  store i32 %31, ptr %32, align 8
  %.not = icmp eq ptr %7, null
  br i1 %.not, label %35, label %33

33:                                               ; preds = %28
  %34 = getelementptr inbounds nuw i8, ptr %7, i64 32
  store i32 %31, ptr %34, align 8
  %.pre = load i32, ptr %32, align 8
  br label %35

35:                                               ; preds = %33, %28
  %36 = phi i32 [ %.pre, %33 ], [ %31, %28 ]
  %37 = load i32, ptr @hf_http_response_code, align 4
  %38 = call ptr @proto_tree_add_uint(ptr noundef %2, i32 noundef %37, ptr noundef %1, i32 noundef %25, i32 noundef 3, i32 noundef %36)
  %39 = load i32, ptr @hf_http_response_code_desc, align 4
  %40 = load i32, ptr %32, align 8
  %41 = call ptr @val_to_str(i32 noundef %40, ptr noundef nonnull @vals_http_status_code, ptr noundef nonnull @.str.457)
  %42 = call ptr @proto_tree_add_string(ptr noundef %2, i32 noundef %39, ptr noundef %1, i32 noundef %25, i32 noundef 3, ptr noundef %41)
  %.not.i = icmp eq ptr %42, null
  br i1 %.not.i, label %proto_item_set_generated.exit, label %43

43:                                               ; preds = %35
  %44 = getelementptr inbounds nuw i8, ptr %42, i64 40
  %45 = load ptr, ptr %44, align 8
  %.not5.i = icmp eq ptr %45, null
  br i1 %.not5.i, label %proto_item_set_generated.exit, label %46

46:                                               ; preds = %43
  %47 = getelementptr inbounds nuw i8, ptr %45, i64 28
  %48 = load i32, ptr %47, align 4
  %49 = or i32 %48, 2
  store i32 %49, ptr %47, align 4
  br label %proto_item_set_generated.exit

proto_item_set_generated.exit:                    ; preds = %35, %43, %46
  %50 = load ptr, ptr %9, align 8
  %51 = ptrtoint ptr %50 to i64
  %52 = ptrtoint ptr %5 to i64
  %53 = sub i64 %52, %51
  %54 = trunc i64 %53 to i32
  %55 = icmp sgt i32 %54, 0
  br i1 %55, label %56, label %62

56:                                               ; preds = %proto_item_set_generated.exit
  %57 = sub i64 %51, %21
  %58 = trunc i64 %57 to i32
  %59 = add i32 %25, %58
  %60 = load i32, ptr @hf_http_response_phrase, align 4
  %61 = call ptr @proto_tree_add_item(ptr noundef %2, i32 noundef %60, ptr noundef %1, i32 noundef %59, i32 noundef %54, i32 noundef 0)
  br label %62

62:                                               ; preds = %proto_item_set_generated.exit, %56, %17, %8
  call void @llvm.lifetime.end.p0(i64 4, ptr nonnull %10) #21
  call void @llvm.lifetime.end.p0(i64 8, ptr nonnull %9) #21
  ret void
}